; Function Attrs: mustprogress uwtable
define void @_ZN3net19QuicPacketGenerator21FinishBatchOperationsEv(ptr noundef nonnull align 8 dereferenceable(472) initializes((344, 345)) %0) local_unnamed_addr #0 align 2 {
  %2 = getelementptr inbounds nuw i8, ptr %0, i64 344
  store i8 0, ptr %2, align 8, !tbaa !77
  %3 = getelementptr inbounds nuw i8, ptr %0, i64 345
  %4 = getelementptr inbounds nuw i8, ptr %0, i64 346
  %5 = getelementptr inbounds nuw i8, ptr %0, i64 320
  %6 = getelementptr inbounds nuw i8, ptr %0, i64 328
  br label %.split.i

.split.i:                                         ; preds = %.critedge2.i, %1
  %7 = load i8, ptr %3, align 1, !tbaa !70, !range !67, !noundef !68
  %8 = trunc nuw i8 %7 to i1
  %.pre.i = load i8, ptr %4, align 2, !range !67
  br i1 %8, label %_ZNK3net19QuicPacketGenerator16HasPendingFramesEv.exit.thread.i, label %9

9:                                                ; preds = %.split.i
  %10 = trunc nuw i8 %.pre.i to i1
  br i1 %10, label %_ZNK3net19QuicPacketGenerator16HasPendingFramesEv.exit.thread.i, label %_ZNK3net19QuicPacketGenerator16HasPendingFramesEv.exit.i

_ZNK3net19QuicPacketGenerator16HasPendingFramesEv.exit.i: ; preds = %9
  %11 = load ptr, ptr %5, align 8, !tbaa !72
  %12 = load ptr, ptr %6, align 8, !tbaa !72
  %.not.i = icmp eq ptr %11, %12
  br i1 %.not.i, label %.critedge.thread.i, label %_ZNK3net19QuicPacketGenerator16HasPendingFramesEv.exit.thread.i

_ZNK3net19QuicPacketGenerator16HasPendingFramesEv.exit.thread.i: ; preds = %_ZNK3net19QuicPacketGenerator16HasPendingFramesEv.exit.i, %9, %.split.i
  %13 = xor i8 %.pre.i, 1
  %not..i.i = select i1 %8, i8 0, i8 %13
  %14 = load ptr, ptr %0, align 8, !tbaa !3
  %15 = load ptr, ptr %14, align 8, !tbaa !73
  %16 = getelementptr inbounds nuw i8, ptr %15, i64 32
  %17 = load ptr, ptr %16, align 8
  %18 = tail call noundef zeroext i1 %17(ptr noundef nonnull align 8 dereferenceable(8) %14, i8 noundef signext %not..i.i, i8 noundef signext 0)
  br i1 %18, label %.critedge2.i, label %.critedge.thread.i

.critedge2.i:                                     ; preds = %_ZNK3net19QuicPacketGenerator16HasPendingFramesEv.exit.thread.i
  %19 = tail call noundef zeroext i1 @_ZN3net19QuicPacketGenerator19AddNextPendingFrameEv(ptr noundef nonnull align 8 dereferenceable(472) %0)
  br label %.split.i, !llvm.loop !75

.critedge.thread.i:                               ; preds = %_ZNK3net19QuicPacketGenerator16HasPendingFramesEv.exit.i, %_ZNK3net19QuicPacketGenerator16HasPendingFramesEv.exit.thread.i
  %20 = load i8, ptr %2, align 8, !tbaa !77, !range !67, !noundef !68
  %21 = trunc nuw i8 %20 to i1
  br i1 %21, label %_ZN3net19QuicPacketGenerator16SendQueuedFramesEb.exit, label %22

22:                                               ; preds = %.critedge.thread.i
  %23 = getelementptr inbounds nuw i8, ptr %0, i64 8
  tail call void @_ZN3net17QuicPacketCreator5FlushEv(ptr noundef nonnull align 8 dereferenceable(312) %23)
  br label %_ZN3net19QuicPacketGenerator16SendQueuedFramesEb.exit

_ZN3net19QuicPacketGenerator16SendQueuedFramesEb.exit: ; preds = %.critedge.thread.i, %22
  ret void
}